target datalayout = "e-m:e-p270:32:32-p271:32:32-p272:64:64-i64:64-i128:128-f80:128-n8:16:32:64-S128"
target triple = "x86_64-unknown-linux-gnu"

%"class.icu_75::MessageFormat" = type { %"class.icu_75::Format.base", [6 x i8], %"class.icu_75::Locale", %"class.icu_75::MessagePattern", ptr, i32, ptr, i32, i32, i8, ptr, ptr, ptr, ptr, %"class.icu_75::MessageFormat::PluralSelectorProvider", %"class.icu_75::MessageFormat::PluralSelectorProvider" }
%"class.icu_75::Format.base" = type <{ %"class.icu_75::UObject", [157 x i8], [157 x i8] }>
%"class.icu_75::UObject" = type { ptr }
%"class.icu_75::Locale" = type <{ %"class.icu_75::UObject", [12 x i8], [6 x i8], [4 x i8], [2 x i8], i32, [4 x i8], ptr, [157 x i8], [3 x i8], ptr, i8, [7 x i8] }>
%"class.icu_75::MessagePattern" = type <{ %"class.icu_75::UObject", i32, [4 x i8], %"class.icu_75::UnicodeString", ptr, ptr, i32, [4 x i8], ptr, ptr, i32, i8, i8, i8, i8 }>
%"class.icu_75::UnicodeString" = type { %"class.icu_75::Replaceable", %"union.icu_75::UnicodeString::StackBufferOrFields" }
%"class.icu_75::Replaceable" = type { %"class.icu_75::UObject" }
%"union.icu_75::UnicodeString::StackBufferOrFields" = type { %struct.anon.0, [32 x i8] }
%struct.anon.0 = type { i16, i32, i32, ptr }
%"class.icu_75::MessageFormat::PluralSelectorProvider" = type <{ %"class.icu_75::PluralFormat::PluralSelector", ptr, ptr, i32, [4 x i8] }>
%"class.icu_75::PluralFormat::PluralSelector" = type { ptr }
%"class.icu_75::MessagePattern::Part" = type { i32, i32, i16, i16, i32 }

@_ZTIN6icu_756FormatE = external constant ptr
@_ZTIN6icu_7513MessageFormat11DummyFormatE = constant { ptr, ptr, ptr } { ptr getelementptr inbounds (ptr, ptr @_ZTVN10__cxxabiv120__si_class_type_infoE, i64 2), ptr @_ZTSN6icu_7513MessageFormat11DummyFormatE, ptr @_ZTIN6icu_756FormatE }, align 8

; Function Attrs: mustprogress nounwind uwtable
define linkonce_odr noundef nonnull align 4 dereferenceable(16) ptr @_ZNK6icu_7514MessagePattern7getPartEi(ptr noundef nonnull align 8 dereferenceable(127) %this, i32 noundef %i) #0 comdat align 2 {
entry:
  %this.addr = alloca ptr, align 8
  %i.addr = alloca i32, align 4
  store ptr %this, ptr %this.addr, align 8
  store i32 %i, ptr %i.addr, align 4
  %this1 = load ptr, ptr %this.addr, align 8
  %parts = getelementptr inbounds %"class.icu_75::MessagePattern", ptr %this1, i32 0, i32 5
  %0 = load ptr, ptr %parts, align 8
  %1 = load i32, ptr %i.addr, align 4
  %idxprom = sext i32 %1 to i64
  %arrayidx = getelementptr inbounds %"class.icu_75::MessagePattern::Part", ptr %0, i64 %idxprom
  ret ptr %arrayidx
}

; Function Attrs: mustprogress uwtable
define linkonce_odr noundef i32 @_ZNK6icu_7514MessagePattern11getPartTypeEi(ptr noundef nonnull align 8 dereferenceable(127) %this, i32 noundef %i) #1 comdat align 2 {
entry:
  %this.addr = alloca ptr, align 8
  %i.addr = alloca i32, align 4
  store ptr %this, ptr %this.addr, align 8
  store i32 %i, ptr %i.addr, align 4
  %this1 = load ptr, ptr %this.addr, align 8
  %0 = load i32, ptr %i.addr, align 4
  %call = call noundef nonnull align 4 dereferenceable(16) ptr @_ZNK6icu_7514MessagePattern7getPartEi(ptr noundef nonnull align 8 dereferenceable(127) %this1, i32 noundef %0)
  %type = getelementptr inbounds %"class.icu_75::MessagePattern::Part", ptr %call, i32 0, i32 0
  %1 = load i32, ptr %type, align 4
  ret i32 %1
}

; Function Attrs: mustprogress uwtable
define linkonce_odr noundef i32 @_ZNK6icu_7514MessagePattern17getLimitPartIndexEi(ptr noundef nonnull align 8 dereferenceable(127) %this, i32 noundef %start) #1 comdat align 2 {
entry:
  %retval = alloca i32, align 4
  %this.addr = alloca ptr, align 8
  %start.addr = alloca i32, align 4
  %limit = alloca i32, align 4
  store ptr %this, ptr %this.addr, align 8
  store i32 %start, ptr %start.addr, align 4
  %this1 = load ptr, ptr %this.addr, align 8
  %0 = load i32, ptr %start.addr, align 4
  %call = call noundef nonnull align 4 dereferenceable(16) ptr @_ZNK6icu_7514MessagePattern7getPartEi(ptr noundef nonnull align 8 dereferenceable(127) %this1, i32 noundef %0)
  %limitPartIndex = getelementptr inbounds %"class.icu_75::MessagePattern::Part", ptr %call, i32 0, i32 4
  %1 = load i32, ptr %limitPartIndex, align 4
  store i32 %1, ptr %limit, align 4
  %2 = load i32, ptr %limit, align 4
  %3 = load i32, ptr %start.addr, align 4
  %cmp = icmp slt i32 %2, %3
  br i1 %cmp, label %if.then, label %if.end

if.then:                                          ; preds = %entry
  %4 = load i32, ptr %start.addr, align 4
  store i32 %4, ptr %retval, align 4
  br label %return

if.end:                                           ; preds = %entry
  %5 = load i32, ptr %limit, align 4
  store i32 %5, ptr %retval, align 4
  br label %return

return:                                           ; preds = %if.end, %if.then
  %6 = load i32, ptr %retval, align 4
  ret i32 %6
}

; Function Attrs: mustprogress uwtable
define noundef ptr @_ZNK6icu_7513MessageFormat18getCachedFormatterEi(ptr noundef nonnull align 8 dereferenceable(816) %this, i32 noundef %argumentNumber) #1 align 2 {
entry:
  %retval = alloca ptr, align 8
  %this.addr = alloca ptr, align 8
  %argumentNumber.addr = alloca i32, align 4
  %ptr = alloca ptr, align 8
  store ptr %this, ptr %this.addr, align 8
  store i32 %argumentNumber, ptr %argumentNumber.addr, align 4
  %this1 = load ptr, ptr %this.addr, align 8
  %cachedFormatters = getelementptr inbounds %"class.icu_75::MessageFormat", ptr %this1, i32 0, i32 12
  %0 = load ptr, ptr %cachedFormatters, align 8
  %cmp = icmp eq ptr %0, null
  br i1 %cmp, label %if.then, label %if.end

if.then:                                          ; preds = %entry
  store ptr null, ptr %retval, align 8
  br label %return

if.end:                                           ; preds = %entry
  %cachedFormatters2 = getelementptr inbounds %"class.icu_75::MessageFormat", ptr %this1, i32 0, i32 12
  %1 = load ptr, ptr %cachedFormatters2, align 8
  %2 = load i32, ptr %argumentNumber.addr, align 4
  %call = call ptr @uhash_iget_75(ptr noundef %1, i32 noundef %2)
  store ptr %call, ptr %ptr, align 8
  %3 = load ptr, ptr %ptr, align 8
  %cmp3 = icmp ne ptr %3, null
  br i1 %cmp3, label %land.lhs.true, label %if.else

land.lhs.true:                                    ; preds = %if.end
  %4 = load ptr, ptr %ptr, align 8
  %5 = icmp eq ptr %4, null
  br i1 %5, label %dynamic_cast.null, label %dynamic_cast.notnull

dynamic_cast.notnull:                             ; preds = %land.lhs.true
  %6 = call ptr @__dynamic_cast(ptr %4, ptr @_ZTIN6icu_756FormatE, ptr @_ZTIN6icu_7513MessageFormat11DummyFormatE, i64 0) #11
  br label %dynamic_cast.end

dynamic_cast.null:                                ; preds = %land.lhs.true
  br label %dynamic_cast.end

dynamic_cast.end:                                 ; preds = %dynamic_cast.null, %dynamic_cast.notnull
  %7 = phi ptr [ %6, %dynamic_cast.notnull ], [ null, %dynamic_cast.null ]
  %cmp4 = icmp eq ptr %7, null
  br i1 %cmp4, label %if.then5, label %if.else

if.then5:                                         ; preds = %dynamic_cast.end
  %8 = load ptr, ptr %ptr, align 8
  store ptr %8, ptr %retval, align 8
  br label %return

if.else:                                          ; preds = %dynamic_cast.end, %if.end
  store ptr null, ptr %retval, align 8
  br label %return

return:                                           ; preds = %if.else, %if.then5, %if.then
  %9 = load ptr, ptr %retval, align 8
  ret ptr %9
}

; Function Attrs: mustprogress uwtable
define noundef i32 @_ZNK6icu_7513MessageFormat20nextTopLevelArgStartEi(ptr noundef nonnull align 8 dereferenceable(816) %this, i32 noundef %partIndex) #1 align 2 {
entry:
  %retval = alloca i32, align 4
  %this.addr = alloca ptr, align 8
  %partIndex.addr = alloca i32, align 4
  %type = alloca i32, align 4
  store ptr %this, ptr %this.addr, align 8
  store i32 %partIndex, ptr %partIndex.addr, align 4
  %this1 = load ptr, ptr %this.addr, align 8
  %0 = load i32, ptr %partIndex.addr, align 4
  %cmp = icmp ne i32 %0, 0
  br i1 %cmp, label %if.then, label %if.end

if.then:                                          ; preds = %entry
  %msgPattern = getelementptr inbounds %"class.icu_75::MessageFormat", ptr %this1, i32 0, i32 3
  %1 = load i32, ptr %partIndex.addr, align 4
  %call = call noundef i32 @_ZNK6icu_7514MessagePattern17getLimitPartIndexEi(ptr noundef nonnull align 8 dereferenceable(127) %msgPattern, i32 noundef %1)
  store i32 %call, ptr %partIndex.addr, align 4
  br label %if.end

if.end:                                           ; preds = %if.then, %entry
  br label %for.cond

for.cond:                                         ; preds = %if.end9, %if.end
  %msgPattern2 = getelementptr inbounds %"class.icu_75::MessageFormat", ptr %this1, i32 0, i32 3
  %2 = load i32, ptr %partIndex.addr, align 4
  %inc = add nsw i32 %2, 1
  store i32 %inc, ptr %partIndex.addr, align 4
  %call3 = call noundef i32 @_ZNK6icu_7514MessagePattern11getPartTypeEi(ptr noundef nonnull align 8 dereferenceable(127) %msgPattern2, i32 noundef %inc)
  store i32 %call3, ptr %type, align 4
  %3 = load i32, ptr %type, align 4
  %cmp4 = icmp eq i32 %3, 5
  br i1 %cmp4, label %if.then5, label %if.end6

if.then5:                                         ; preds = %for.cond
  %4 = load i32, ptr %partIndex.addr, align 4
  store i32 %4, ptr %retval, align 4
  br label %return

if.end6:                                          ; preds = %for.cond
  %5 = load i32, ptr %type, align 4
  %cmp7 = icmp eq i32 %5, 1
  br i1 %cmp7, label %if.then8, label %if.end9

if.then8:                                         ; preds = %if.end6
  store i32 -1, ptr %retval, align 4
  br label %return

if.end9:                                          ; preds = %if.end6
  br label %for.cond, !llvm.loop !11

return:                                           ; preds = %if.then8, %if.then5
  %6 = load i32, ptr %retval, align 4
  ret i32 %6
}

; Function Attrs: mustprogress uwtable
define noundef ptr @_ZNK6icu_7513MessageFormat10getFormatsERi(ptr noundef nonnull align 8 dereferenceable(816) %this, ptr noundef nonnull align 4 dereferenceable(4) %cnt) unnamed_addr #1 align 2 {
entry:
  %retval = alloca ptr, align 8
  %this.addr = alloca ptr, align 8
  %cnt.addr = alloca ptr, align 8
  %totalCapacity = alloca i32, align 4
  %partIndex = alloca i32, align 4
  %t = alloca ptr, align 8
  %a = alloca ptr, align 8
  %a12 = alloca ptr, align 8
  %partIndex25 = alloca i32, align 4
  store ptr %this, ptr %this.addr, align 8
  store ptr %cnt, ptr %cnt.addr, align 8
  %this1 = load ptr, ptr %this.addr, align 8
  store i32 0, ptr %totalCapacity, align 4
  store i32 0, ptr %partIndex, align 4
  br label %for.cond

for.cond:                                         ; preds = %for.inc, %entry
  %0 = load i32, ptr %partIndex, align 4
  %call = call noundef i32 @_ZNK6icu_7513MessageFormat20nextTopLevelArgStartEi(ptr noundef nonnull align 8 dereferenceable(816) %this1, i32 noundef %0)
  store i32 %call, ptr %partIndex, align 4
  %cmp = icmp sge i32 %call, 0
  br i1 %cmp, label %for.body, label %for.end

for.body:                                         ; preds = %for.cond
  br label %for.inc

for.inc:                                          ; preds = %for.body
  %1 = load i32, ptr %totalCapacity, align 4
  %inc = add nsw i32 %1, 1
  store i32 %inc, ptr %totalCapacity, align 4
  br label %for.cond, !llvm.loop !20

for.end:                                          ; preds = %for.cond
  store ptr %this1, ptr %t, align 8
  %2 = load ptr, ptr %cnt.addr, align 8
  store i32 0, ptr %2, align 4
  %formatAliases = getelementptr inbounds %"class.icu_75::MessageFormat", ptr %this1, i32 0, i32 4
  %3 = load ptr, ptr %formatAliases, align 8
  %cmp2 = icmp eq ptr %3, null
  br i1 %cmp2, label %if.then, label %if.else

if.then:                                          ; preds = %for.end
  %4 = load i32, ptr %totalCapacity, align 4
  %5 = load ptr, ptr %t, align 8
  %formatAliasesCapacity = getelementptr inbounds %"class.icu_75::MessageFormat", ptr %5, i32 0, i32 5
  store i32 %4, ptr %formatAliasesCapacity, align 8
  %formatAliasesCapacity3 = getelementptr inbounds %"class.icu_75::MessageFormat", ptr %this1, i32 0, i32 5
  %6 = load i32, ptr %formatAliasesCapacity3, align 8
  %conv = sext i32 %6 to i64
  %mul = mul i64 8, %conv
  %call4 = call noalias ptr @uprv_malloc_75(i64 noundef %mul) #12
  store ptr %call4, ptr %a, align 8
  %7 = load ptr, ptr %a, align 8
  %cmp5 = icmp eq ptr %7, null
  br i1 %cmp5, label %if.then6, label %if.end

if.then6:                                         ; preds = %if.then
  %8 = load ptr, ptr %t, align 8
  %formatAliasesCapacity7 = getelementptr inbounds %"class.icu_75::MessageFormat", ptr %8, i32 0, i32 5
  store i32 0, ptr %formatAliasesCapacity7, align 8
  store ptr null, ptr %retval, align 8
  br label %return

if.end:                                           ; preds = %if.then
  %9 = load ptr, ptr %a, align 8
  %10 = load ptr, ptr %t, align 8
  %formatAliases8 = getelementptr inbounds %"class.icu_75::MessageFormat", ptr %10, i32 0, i32 4
  store ptr %9, ptr %formatAliases8, align 8
  br label %if.end24

if.else:                                          ; preds = %for.end
  %11 = load i32, ptr %totalCapacity, align 4
  %formatAliasesCapacity9 = getelementptr inbounds %"class.icu_75::MessageFormat", ptr %this1, i32 0, i32 5
  %12 = load i32, ptr %formatAliasesCapacity9, align 8
  %cmp10 = icmp sgt i32 %11, %12
  br i1 %cmp10, label %if.then11, label %if.end23

if.then11:                                        ; preds = %if.else
  %formatAliases13 = getelementptr inbounds %"class.icu_75::MessageFormat", ptr %this1, i32 0, i32 4
  %13 = load ptr, ptr %formatAliases13, align 8
  %14 = load i32, ptr %totalCapacity, align 4
  %conv14 = sext i32 %14 to i64
  %mul15 = mul i64 8, %conv14
  %call16 = call ptr @uprv_realloc_75(ptr noundef %13, i64 noundef %mul15) #14
  store ptr %call16, ptr %a12, align 8
  %15 = load ptr, ptr %a12, align 8
  %cmp17 = icmp eq ptr %15, null
  br i1 %cmp17, label %if.then18, label %if.end20

if.then18:                                        ; preds = %if.then11
  %16 = load ptr, ptr %t, align 8
  %formatAliasesCapacity19 = getelementptr inbounds %"class.icu_75::MessageFormat", ptr %16, i32 0, i32 5
  store i32 0, ptr %formatAliasesCapacity19, align 8
  store ptr null, ptr %retval, align 8
  br label %return

if.end20:                                         ; preds = %if.then11
  %17 = load ptr, ptr %a12, align 8
  %18 = load ptr, ptr %t, align 8
  %formatAliases21 = getelementptr inbounds %"class.icu_75::MessageFormat", ptr %18, i32 0, i32 4
  store ptr %17, ptr %formatAliases21, align 8
  %19 = load i32, ptr %totalCapacity, align 4
  %20 = load ptr, ptr %t, align 8
  %formatAliasesCapacity22 = getelementptr inbounds %"class.icu_75::MessageFormat", ptr %20, i32 0, i32 5
  store i32 %19, ptr %formatAliasesCapacity22, align 8
  br label %if.end23

if.end23:                                         ; preds = %if.end20, %if.else
  br label %if.end24

if.end24:                                         ; preds = %if.end23, %if.end
  store i32 0, ptr %partIndex25, align 4
  br label %for.cond26

for.cond26:                                       ; preds = %for.body29, %if.end24
  %21 = load i32, ptr %partIndex25, align 4
  %call27 = call noundef i32 @_ZNK6icu_7513MessageFormat20nextTopLevelArgStartEi(ptr noundef nonnull align 8 dereferenceable(816) %this1, i32 noundef %21)
  store i32 %call27, ptr %partIndex25, align 4
  %cmp28 = icmp sge i32 %call27, 0
  br i1 %cmp28, label %for.body29, label %for.end33

for.body29:                                       ; preds = %for.cond26
  %22 = load i32, ptr %partIndex25, align 4
  %call30 = call noundef ptr @_ZNK6icu_7513MessageFormat18getCachedFormatterEi(ptr noundef nonnull align 8 dereferenceable(816) %this1, i32 noundef %22)
  %23 = load ptr, ptr %t, align 8
  %formatAliases31 = getelementptr inbounds %"class.icu_75::MessageFormat", ptr %23, i32 0, i32 4
  %24 = load ptr, ptr %formatAliases31, align 8
  %25 = load ptr, ptr %cnt.addr, align 8
  %26 = load i32, ptr %25, align 4
  %inc32 = add nsw i32 %26, 1
  store i32 %inc32, ptr %25, align 4
  %idxprom = sext i32 %26 to i64
  %arrayidx = getelementptr inbounds ptr, ptr %24, i64 %idxprom
  store ptr %call30, ptr %arrayidx, align 8
  br label %for.cond26, !llvm.loop !21

for.end33:                                        ; preds = %for.cond26
  %formatAliases34 = getelementptr inbounds %"class.icu_75::MessageFormat", ptr %this1, i32 0, i32 4
  %27 = load ptr, ptr %formatAliases34, align 8
  store ptr %27, ptr %retval, align 8
  br label %return

return:                                           ; preds = %for.end33, %if.then18, %if.then6
  %28 = load ptr, ptr %retval, align 8
  ret ptr %28
}