; Function Attrs: mustprogress uwtable
define noundef ptr @_ZNK6icu_7513MessageFormat10getFormatsERi(ptr nocapture noundef nonnull align 8 dereferenceable(816) %this, ptr nocapture noundef nonnull align 4 dereferenceable(4) %cnt) unnamed_addr #1 align 2 {
entry:
  %parts.i.i5.phi.trans.insert.i = getelementptr inbounds i8, ptr %this, i64 640
  %.pre.i = load ptr, ptr %parts.i.i5.phi.trans.insert.i, align 8
  br label %for.cond

for.cond:                                         ; preds = %for.inc, %entry
  %partIndex.0 = phi i32 [ 0, %entry ], [ %3, %for.inc ]
  %totalCapacity.0 = phi i32 [ 0, %entry ], [ %inc, %for.inc ]
  %cmp.not.i = icmp eq i32 %partIndex.0, 0
  br i1 %cmp.not.i, label %for.cond.i.preheader, label %if.then.i

if.then.i:                                        ; preds = %for.cond
  %idxprom.i.i.i = zext nneg i32 %partIndex.0 to i64
  %limitPartIndex.i.i = getelementptr inbounds %"class.icu_75::MessagePattern::Part", ptr %.pre.i, i64 %idxprom.i.i.i, i32 4
  %0 = load i32, ptr %limitPartIndex.i.i, align 4
  %start..i.i = tail call noundef i32 @llvm.smax.i32(i32 %0, i32 %partIndex.0)
  %1 = zext nneg i32 %start..i.i to i64
  br label %for.cond.i.preheader

for.cond.i.preheader:                             ; preds = %if.then.i, %for.cond
  %indvars.iv.i.ph = phi i64 [ 0, %for.cond ], [ %1, %if.then.i ]
  br label %for.cond.i

for.cond.i:                                       ; preds = %for.cond.i.preheader, %for.cond.i
  %indvars.iv.i = phi i64 [ %indvars.iv.next.i, %for.cond.i ], [ %indvars.iv.i.ph, %for.cond.i.preheader ]
  %indvars.iv.next.i = add nuw nsw i64 %indvars.iv.i, 1
  %arrayidx.i.i.i = getelementptr inbounds %"class.icu_75::MessagePattern::Part", ptr %.pre.i, i64 %indvars.iv.next.i
  %2 = load i32, ptr %arrayidx.i.i.i, align 4
  switch i32 %2, label %for.cond.i [
    i32 5, label %_ZNK6icu_7513MessageFormat20nextTopLevelArgStartEi.exit
    i32 1, label %for.end
  ]

_ZNK6icu_7513MessageFormat20nextTopLevelArgStartEi.exit: ; preds = %for.cond.i
  %3 = trunc i64 %indvars.iv.next.i to i32
  %cmp = icmp sgt i32 %3, -1
  br i1 %cmp, label %for.inc, label %for.end

for.inc:                                          ; preds = %_ZNK6icu_7513MessageFormat20nextTopLevelArgStartEi.exit
  %inc = add nuw nsw i32 %totalCapacity.0, 1
  br label %for.cond, !llvm.loop !25

for.end:                                          ; preds = %_ZNK6icu_7513MessageFormat20nextTopLevelArgStartEi.exit, %for.cond.i
  store i32 0, ptr %cnt, align 4
  %formatAliases = getelementptr inbounds i8, ptr %this, i64 680
  %4 = load ptr, ptr %formatAliases, align 8
  %cmp2 = icmp eq ptr %4, null
  %formatAliasesCapacity = getelementptr inbounds i8, ptr %this, i64 688
  br i1 %cmp2, label %if.then, label %if.else

if.then:                                          ; preds = %for.end
  store i32 %totalCapacity.0, ptr %formatAliasesCapacity, align 8
  %conv = zext nneg i32 %totalCapacity.0 to i64
  %mul = shl nuw nsw i64 %conv, 3
  %call4 = tail call noalias ptr @uprv_malloc_75(i64 noundef %mul) #20
  %cmp5 = icmp eq ptr %call4, null
  br i1 %cmp5, label %if.then6, label %if.end

if.then6:                                         ; preds = %if.then
  store i32 0, ptr %formatAliasesCapacity, align 8
  br label %return

if.end:                                           ; preds = %if.then
  store ptr %call4, ptr %formatAliases, align 8
  br label %if.end24

if.else:                                          ; preds = %for.end
  %5 = load i32, ptr %formatAliasesCapacity, align 8
  %cmp10 = icmp sgt i32 %totalCapacity.0, %5
  br i1 %cmp10, label %if.then11, label %if.end24

if.then11:                                        ; preds = %if.else
  %conv14 = zext nneg i32 %totalCapacity.0 to i64
  %mul15 = shl nuw nsw i64 %conv14, 3
  %call16 = tail call ptr @uprv_realloc_75(ptr noundef nonnull %4, i64 noundef %mul15) #22
  %cmp17 = icmp eq ptr %call16, null
  br i1 %cmp17, label %if.then18, label %if.end20

if.then18:                                        ; preds = %if.then11
  store i32 0, ptr %formatAliasesCapacity, align 8
  br label %return

if.end20:                                         ; preds = %if.then11
  store ptr %call16, ptr %formatAliases, align 8
  store i32 %totalCapacity.0, ptr %formatAliasesCapacity, align 8
  br label %if.end24

if.end24:                                         ; preds = %if.else, %if.end20, %if.end
  %cachedFormatters.i = getelementptr inbounds i8, ptr %this, i64 736
  br label %for.cond26

for.cond26:                                       ; preds = %_ZNK6icu_7513MessageFormat18getCachedFormatterEi.exit, %if.end24
  %partIndex25.0 = phi i32 [ 0, %if.end24 ], [ %9, %_ZNK6icu_7513MessageFormat18getCachedFormatterEi.exit ]
  %cmp.not.i15 = icmp eq i32 %partIndex25.0, 0
  %.pre.i17 = load ptr, ptr %parts.i.i5.phi.trans.insert.i, align 8
  br i1 %cmp.not.i15, label %for.cond.i24.preheader, label %if.then.i18

if.then.i18:                                      ; preds = %for.cond26
  %idxprom.i.i.i19 = zext nneg i32 %partIndex25.0 to i64
  %limitPartIndex.i.i20 = getelementptr inbounds %"class.icu_75::MessagePattern::Part", ptr %.pre.i17, i64 %idxprom.i.i.i19, i32 4
  %6 = load i32, ptr %limitPartIndex.i.i20, align 4
  %start..i.i21 = tail call noundef i32 @llvm.smax.i32(i32 %6, i32 %partIndex25.0)
  %7 = zext nneg i32 %start..i.i21 to i64
  br label %for.cond.i24.preheader

for.cond.i24.preheader:                           ; preds = %if.then.i18, %for.cond26
  %indvars.iv.i25.ph = phi i64 [ 0, %for.cond26 ], [ %7, %if.then.i18 ]
  br label %for.cond.i24

for.cond.i24:                                     ; preds = %for.cond.i24.preheader, %for.cond.i24
  %indvars.iv.i25 = phi i64 [ %indvars.iv.next.i26, %for.cond.i24 ], [ %indvars.iv.i25.ph, %for.cond.i24.preheader ]
  %indvars.iv.next.i26 = add nuw nsw i64 %indvars.iv.i25, 1
  %arrayidx.i.i.i27 = getelementptr inbounds %"class.icu_75::MessagePattern::Part", ptr %.pre.i17, i64 %indvars.iv.next.i26
  %8 = load i32, ptr %arrayidx.i.i.i27, align 4
  switch i32 %8, label %for.cond.i24 [
    i32 5, label %_ZNK6icu_7513MessageFormat20nextTopLevelArgStartEi.exit30
    i32 1, label %for.end33
  ]

_ZNK6icu_7513MessageFormat20nextTopLevelArgStartEi.exit30: ; preds = %for.cond.i24
  %9 = trunc i64 %indvars.iv.next.i26 to i32
  %cmp28 = icmp sgt i32 %9, -1
  br i1 %cmp28, label %for.body29, label %for.end33

for.body29:                                       ; preds = %_ZNK6icu_7513MessageFormat20nextTopLevelArgStartEi.exit30
  %10 = load ptr, ptr %cachedFormatters.i, align 8
  %cmp.i = icmp eq ptr %10, null
  br i1 %cmp.i, label %_ZNK6icu_7513MessageFormat18getCachedFormatterEi.exit, label %if.end.i31

if.end.i31:                                       ; preds = %for.body29
  %call.i = tail call ptr @uhash_iget_75(ptr noundef nonnull %10, i32 noundef %9)
  %cmp3.not.i = icmp eq ptr %call.i, null
  br i1 %cmp3.not.i, label %if.else.i, label %dynamic_cast.end.i

dynamic_cast.end.i:                               ; preds = %if.end.i31
  %11 = tail call ptr @__dynamic_cast(ptr nonnull %call.i, ptr nonnull @_ZTIN6icu_756FormatE, ptr nonnull @_ZTIN6icu_7513MessageFormat11DummyFormatE, i64 0) #19
  %cmp4.i = icmp eq ptr %11, null
  br i1 %cmp4.i, label %_ZNK6icu_7513MessageFormat18getCachedFormatterEi.exit, label %if.else.i

if.else.i:                                        ; preds = %dynamic_cast.end.i, %if.end.i31
  br label %_ZNK6icu_7513MessageFormat18getCachedFormatterEi.exit

_ZNK6icu_7513MessageFormat18getCachedFormatterEi.exit: ; preds = %for.body29, %dynamic_cast.end.i, %if.else.i
  %retval.0.i32 = phi ptr [ null, %if.else.i ], [ null, %for.body29 ], [ %call.i, %dynamic_cast.end.i ]
  %12 = load ptr, ptr %formatAliases, align 8
  %13 = load i32, ptr %cnt, align 4
  %inc32 = add nsw i32 %13, 1
  store i32 %inc32, ptr %cnt, align 4
  %idxprom = sext i32 %13 to i64
  %arrayidx = getelementptr inbounds ptr, ptr %12, i64 %idxprom
  store ptr %retval.0.i32, ptr %arrayidx, align 8
  br label %for.cond26, !llvm.loop !26

for.end33:                                        ; preds = %_ZNK6icu_7513MessageFormat20nextTopLevelArgStartEi.exit30, %for.cond.i24
  %14 = load ptr, ptr %formatAliases, align 8
  br label %return

return:                                           ; preds = %for.end33, %if.then18, %if.then6
  %retval.0 = phi ptr [ null, %if.then6 ], [ %14, %for.end33 ], [ null, %if.then18 ]
  ret ptr %retval.0
}